target datalayout = "e-m:e-p270:32:32-p271:32:32-p272:64:64-i64:64-i128:128-f80:128-n8:16:32:64-S128"
target triple = "x86_64-pc-linux-gnu"

%struct.asn1_string_table_st = type { i32, i64, i64, i64, i64 }

@.str.5 = private unnamed_addr constant [34 x i8] c"../openssl/crypto/asn1/a_strnid.c\00", align 1

; Function Attrs: nounwind uwtable
define internal void @st_free(ptr noundef %0) #0 {
  %2 = alloca ptr, align 8
  store ptr %0, ptr %2, align 8, !tbaa !17
  %3 = load ptr, ptr %2, align 8, !tbaa !17
  %4 = getelementptr inbounds nuw %struct.asn1_string_table_st, ptr %3, i32 0, i32 4
  %5 = load i64, ptr %4, align 8, !tbaa !21
  %6 = and i64 %5, 1
  %7 = icmp ne i64 %6, 0
  br i1 %7, label %8, label %10

8:                                                ; preds = %1
  %9 = load ptr, ptr %2, align 8, !tbaa !17
  call void @CRYPTO_free(ptr noundef %9, ptr noundef @.str.5, i32 noundef 223)
  br label %10

10:                                               ; preds = %8, %1
  ret void
}