; Function Attrs: nounwind uwtable
define internal void @st_free(ptr noundef %0) #6 {
  %2 = getelementptr inbounds nuw i8, ptr %0, i64 32
  %3 = load i64, ptr %2, align 8, !tbaa !19
  %4 = and i64 %3, 1
  %.not = icmp eq i64 %4, 0
  br i1 %.not, label %6, label %5

5:                                                ; preds = %1
  tail call void @CRYPTO_free(ptr noundef nonnull %0, ptr noundef nonnull @.str.5, i32 noundef 223) #11
  br label %6

6:                                                ; preds = %5, %1
  ret void
}